; ModuleID = '60/202.c'
source_filename = "60/202.c"
target datalayout = "e-m:e-p270:32:32-p271:32:32-p272:64:64-i64:64-f80:128-n8:16:32:64-S128"
target triple = "x86_64-pc-linux-gnu"

@.str = private unnamed_addr constant [3 x i8] c"%d\00", align 1
@.str.1 = private unnamed_addr constant [7 x i8] c"%d %d\0A\00", align 1
@.str.2 = private unnamed_addr constant [7 x i8] c"empty\0A\00", align 1

; Function Attrs: noinline nounwind uwtable
define dso_local void @main() #0 {
  %1 = alloca i32, align 4
  %2 = alloca i32, align 4
  %3 = alloca i32, align 4
  %4 = alloca i32, align 4
  %5 = alloca [100000 x i32], align 16
  %6 = alloca i32, align 4
  store i32 0, i32* %2, align 4
  store i32 0, i32* %3, align 4
  store i32 0, i32* %4, align 4
  %7 = bitcast [100000 x i32]* %5 to i8*
  call void @llvm.memset.p0i8.i64(i8* align 16 %7, i8 0, i64 400000, i1 false)
  store i32 0, i32* %6, align 4
  %8 = call i32 (i8*, ...) @__isoc99_scanf(i8* getelementptr inbounds ([3 x i8], [3 x i8]* @.str, i64 0, i64 0), i32* %1)
  store i32 1, i32* %2, align 4
  br label %9

9:                                                ; preds = %44, %0
  %10 = load i32, i32* %2, align 4
  %11 = load i32, i32* %1, align 4
  %12 = icmp sle i32 %10, %11
  br i1 %12, label %13, label %47

13:                                               ; preds = %9
  store i32 0, i32* %4, align 4
  store i32 1, i32* %3, align 4
  br label %14

14:                                               ; preds = %28, %13
  %15 = load i32, i32* %3, align 4
  %16 = load i32, i32* %2, align 4
  %17 = sdiv i32 %16, 2
  %18 = icmp sle i32 %15, %17
  br i1 %18, label %19, label %31

19:                                               ; preds = %14
  %20 = load i32, i32* %2, align 4
  %21 = load i32, i32* %3, align 4
  %22 = srem i32 %20, %21
  %23 = icmp ne i32 %22, 0
  br i1 %23, label %24, label %27

24:                                               ; preds = %19
  %25 = load i32, i32* %4, align 4
  %26 = add nsw i32 %25, 1
  store i32 %26, i32* %4, align 4
  br label %27

27:                                               ; preds = %24, %19
  br label %28

28:                                               ; preds = %27
  %29 = load i32, i32* %3, align 4
  %30 = add nsw i32 %29, 1
  store i32 %30, i32* %3, align 4
  br label %14

31:                                               ; preds = %14
  %32 = load i32, i32* %4, align 4
  %33 = load i32, i32* %2, align 4
  %34 = sdiv i32 %33, 2
  %35 = sub nsw i32 %34, 1
  %36 = icmp eq i32 %32, %35
  br i1 %36, label %37, label %43

37:                                               ; preds = %31
  %38 = load i32, i32* %2, align 4
  %39 = load i32, i32* %2, align 4
  %40 = sub nsw i32 %39, 1
  %41 = sext i32 %40 to i64
  %42 = getelementptr inbounds [100000 x i32], [100000 x i32]* %5, i64 0, i64 %41
  store i32 %38, i32* %42, align 4
  br label %43

43:                                               ; preds = %37, %31
  br label %44

44:                                               ; preds = %43
  %45 = load i32, i32* %2, align 4
  %46 = add nsw i32 %45, 1
  store i32 %46, i32* %2, align 4
  br label %9

47:                                               ; preds = %9
  store i32 1, i32* %2, align 4
  br label %48

48:                                               ; preds = %82, %47
  %49 = load i32, i32* %2, align 4
  %50 = load i32, i32* %1, align 4
  %51 = icmp sle i32 %49, %50
  br i1 %51, label %52, label %85

52:                                               ; preds = %48
  %53 = load i32, i32* %2, align 4
  %54 = sub nsw i32 %53, 1
  %55 = sext i32 %54 to i64
  %56 = getelementptr inbounds [100000 x i32], [100000 x i32]* %5, i64 0, i64 %55
  %57 = load i32, i32* %56, align 4
  %58 = icmp ne i32 %57, 0
  br i1 %58, label %59, label %78

59:                                               ; preds = %52
  %60 = load i32, i32* %2, align 4
  %61 = add nsw i32 %60, 1
  %62 = sext i32 %61 to i64
  %63 = getelementptr inbounds [100000 x i32], [100000 x i32]* %5, i64 0, i64 %62
  %64 = load i32, i32* %63, align 4
  %65 = icmp ne i32 %64, 0
  br i1 %65, label %66, label %78

66:                                               ; preds = %59
  %67 = load i32, i32* %2, align 4
  %68 = sub nsw i32 %67, 1
  %69 = sext i32 %68 to i64
  %70 = getelementptr inbounds [100000 x i32], [100000 x i32]* %5, i64 0, i64 %69
  %71 = load i32, i32* %70, align 4
  %72 = load i32, i32* %2, align 4
  %73 = add nsw i32 %72, 1
  %74 = sext i32 %73 to i64
  %75 = getelementptr inbounds [100000 x i32], [100000 x i32]* %5, i64 0, i64 %74
  %76 = load i32, i32* %75, align 4
  %77 = call i32 (i8*, ...) @printf(i8* getelementptr inbounds ([7 x i8], [7 x i8]* @.str.1, i64 0, i64 0), i32 %71, i32 %76)
  br label %81

78:                                               ; preds = %59, %52
  %79 = load i32, i32* %6, align 4
  %80 = add nsw i32 %79, 1
  store i32 %80, i32* %6, align 4
  br label %81

81:                                               ; preds = %78, %66
  br label %82

82:                                               ; preds = %81
  %83 = load i32, i32* %2, align 4
  %84 = add nsw i32 %83, 2
  store i32 %84, i32* %2, align 4
  br label %48

85:                                               ; preds = %48
  %86 = load i32, i32* %6, align 4
  %87 = load i32, i32* %1, align 4
  %88 = add nsw i32 %87, 1
  %89 = sdiv i32 %88, 2
  %90 = icmp sge i32 %86, %89
  br i1 %90, label %91, label %93

91:                                               ; preds = %85
  %92 = call i32 (i8*, ...) @printf(i8* getelementptr inbounds ([7 x i8], [7 x i8]* @.str.2, i64 0, i64 0))
  br label %93

93:                                               ; preds = %91, %85
  ret void
}

; Function Attrs: argmemonly nounwind willreturn
declare void @llvm.memset.p0i8.i64(i8* nocapture writeonly, i8, i64, i1 immarg) #1

declare dso_local i32 @__isoc99_scanf(i8*, ...) #2

declare dso_local i32 @printf(i8*, ...) #2


!llvm.module.flags = !{!0}
!llvm.ident = !{!1}

!0 = !{i32 1, !"wchar_size", i32 4}
!1 = !{!"clang version 10.0.0-4ubuntu1 "}
